#include <math.h>
#include <stdio.h>
#include <stdlib.h>
#include <string.h>

int n;
int check(char s[],int i,int j)
{
	int k,p=1;
	for(k=0;k<n;k=k+1)
		if (s[i+k]!=s[j+k])
		{
			p=0;
			break;
		}
	return p;
}
int main()
{
	int l,p,a[501]={0},i,j,max=0;
	char  s[501];
	scanf("%d\n",&n);
	gets(s);
	l=strlen(s);
	for(i=l-n-1;i>=0;i=i-1)
		for(j=i+1;j<=l-n;j=j+1)
		{
			p=check(s,i,j);
			if (p)
			{
				a[i]=a[j]+1;
				if (a[i]>max)
					max=a[i];
				break;
			}
		}
 if(max==0)  printf("NO");
 else
 {
	 p=0;
	 printf("%d\n",max+1);
	 for(i=0;i<l-n;i=i+1)
	 {
		 if (a[i]==max)
		 {
			 if(p) printf("\n");
			 p++;
			 for(j=0;j<n;j=j+1)
				 printf("%c",s[j+i]);
		 }
	 }
 }
 return 0;
}
