; ModuleID = '51/412.c'
source_filename = "51/412.c"
target datalayout = "e-m:e-p270:32:32-p271:32:32-p272:64:64-i64:64-f80:128-n8:16:32:64-S128"
target triple = "x86_64-pc-linux-gnu"

@n = common dso_local global i32 0, align 4
@.str = private unnamed_addr constant [4 x i8] c"%d\0A\00", align 1
@.str.1 = private unnamed_addr constant [3 x i8] c"NO\00", align 1
@.str.2 = private unnamed_addr constant [2 x i8] c"\0A\00", align 1
@.str.3 = private unnamed_addr constant [3 x i8] c"%c\00", align 1

; Function Attrs: noinline nounwind uwtable
define dso_local i32 @check(i8* %0, i32 %1, i32 %2) #0 {
  %4 = alloca i8*, align 8
  %5 = alloca i32, align 4
  %6 = alloca i32, align 4
  %7 = alloca i32, align 4
  %8 = alloca i32, align 4
  store i8* %0, i8** %4, align 8
  store i32 %1, i32* %5, align 4
  store i32 %2, i32* %6, align 4
  store i32 1, i32* %8, align 4
  store i32 0, i32* %7, align 4
  br label %9

9:                                                ; preds = %33, %3
  %10 = load i32, i32* %7, align 4
  %11 = load i32, i32* @n, align 4
  %12 = icmp slt i32 %10, %11
  br i1 %12, label %13, label %36

13:                                               ; preds = %9
  %14 = load i8*, i8** %4, align 8
  %15 = load i32, i32* %5, align 4
  %16 = load i32, i32* %7, align 4
  %17 = add nsw i32 %15, %16
  %18 = sext i32 %17 to i64
  %19 = getelementptr inbounds i8, i8* %14, i64 %18
  %20 = load i8, i8* %19, align 1
  %21 = sext i8 %20 to i32
  %22 = load i8*, i8** %4, align 8
  %23 = load i32, i32* %6, align 4
  %24 = load i32, i32* %7, align 4
  %25 = add nsw i32 %23, %24
  %26 = sext i32 %25 to i64
  %27 = getelementptr inbounds i8, i8* %22, i64 %26
  %28 = load i8, i8* %27, align 1
  %29 = sext i8 %28 to i32
  %30 = icmp ne i32 %21, %29
  br i1 %30, label %31, label %32

31:                                               ; preds = %13
  store i32 0, i32* %8, align 4
  br label %36

32:                                               ; preds = %13
  br label %33

33:                                               ; preds = %32
  %34 = load i32, i32* %7, align 4
  %35 = add nsw i32 %34, 1
  store i32 %35, i32* %7, align 4
  br label %9

36:                                               ; preds = %31, %9
  %37 = load i32, i32* %8, align 4
  ret i32 %37
}

; Function Attrs: noinline nounwind uwtable
define dso_local i32 @main() #0 {
  %1 = alloca i32, align 4
  %2 = alloca i32, align 4
  %3 = alloca i32, align 4
  %4 = alloca [501 x i32], align 16
  %5 = alloca i32, align 4
  %6 = alloca i32, align 4
  %7 = alloca i32, align 4
  %8 = alloca [501 x i8], align 16
  store i32 0, i32* %1, align 4
  %9 = bitcast [501 x i32]* %4 to i8*
  call void @llvm.memset.p0i8.i64(i8* align 16 %9, i8 0, i64 2004, i1 false)
  store i32 0, i32* %7, align 4
  %10 = call i32 (i8*, ...) @__isoc99_scanf(i8* getelementptr inbounds ([4 x i8], [4 x i8]* @.str, i64 0, i64 0), i32* @n)
  %11 = getelementptr inbounds [501 x i8], [501 x i8]* %8, i64 0, i64 0
  %12 = call i32 (i8*, ...) bitcast (i32 (...)* @gets to i32 (i8*, ...)*)(i8* %11)
  %13 = getelementptr inbounds [501 x i8], [501 x i8]* %8, i64 0, i64 0
  %14 = call i64 @strlen(i8* %13) #4
  %15 = trunc i64 %14 to i32
  store i32 %15, i32* %2, align 4
  %16 = load i32, i32* %2, align 4
  %17 = load i32, i32* @n, align 4
  %18 = sub nsw i32 %16, %17
  %19 = sub nsw i32 %18, 1
  store i32 %19, i32* %5, align 4
  br label %20

20:                                               ; preds = %65, %0
  %21 = load i32, i32* %5, align 4
  %22 = icmp sge i32 %21, 0
  br i1 %22, label %23, label %68

23:                                               ; preds = %20
  %24 = load i32, i32* %5, align 4
  %25 = add nsw i32 %24, 1
  store i32 %25, i32* %6, align 4
  br label %26

26:                                               ; preds = %61, %23
  %27 = load i32, i32* %6, align 4
  %28 = load i32, i32* %2, align 4
  %29 = load i32, i32* @n, align 4
  %30 = sub nsw i32 %28, %29
  %31 = icmp sle i32 %27, %30
  br i1 %31, label %32, label %64

32:                                               ; preds = %26
  %33 = getelementptr inbounds [501 x i8], [501 x i8]* %8, i64 0, i64 0
  %34 = load i32, i32* %5, align 4
  %35 = load i32, i32* %6, align 4
  %36 = call i32 @check(i8* %33, i32 %34, i32 %35)
  store i32 %36, i32* %3, align 4
  %37 = load i32, i32* %3, align 4
  %38 = icmp ne i32 %37, 0
  br i1 %38, label %39, label %60

39:                                               ; preds = %32
  %40 = load i32, i32* %6, align 4
  %41 = sext i32 %40 to i64
  %42 = getelementptr inbounds [501 x i32], [501 x i32]* %4, i64 0, i64 %41
  %43 = load i32, i32* %42, align 4
  %44 = add nsw i32 %43, 1
  %45 = load i32, i32* %5, align 4
  %46 = sext i32 %45 to i64
  %47 = getelementptr inbounds [501 x i32], [501 x i32]* %4, i64 0, i64 %46
  store i32 %44, i32* %47, align 4
  %48 = load i32, i32* %5, align 4
  %49 = sext i32 %48 to i64
  %50 = getelementptr inbounds [501 x i32], [501 x i32]* %4, i64 0, i64 %49
  %51 = load i32, i32* %50, align 4
  %52 = load i32, i32* %7, align 4
  %53 = icmp sgt i32 %51, %52
  br i1 %53, label %54, label %59

54:                                               ; preds = %39
  %55 = load i32, i32* %5, align 4
  %56 = sext i32 %55 to i64
  %57 = getelementptr inbounds [501 x i32], [501 x i32]* %4, i64 0, i64 %56
  %58 = load i32, i32* %57, align 4
  store i32 %58, i32* %7, align 4
  br label %59

59:                                               ; preds = %54, %39
  br label %64

60:                                               ; preds = %32
  br label %61

61:                                               ; preds = %60
  %62 = load i32, i32* %6, align 4
  %63 = add nsw i32 %62, 1
  store i32 %63, i32* %6, align 4
  br label %26

64:                                               ; preds = %59, %26
  br label %65

65:                                               ; preds = %64
  %66 = load i32, i32* %5, align 4
  %67 = sub nsw i32 %66, 1
  store i32 %67, i32* %5, align 4
  br label %20

68:                                               ; preds = %20
  %69 = load i32, i32* %7, align 4
  %70 = icmp eq i32 %69, 0
  br i1 %70, label %71, label %73

71:                                               ; preds = %68
  %72 = call i32 (i8*, ...) @printf(i8* getelementptr inbounds ([3 x i8], [3 x i8]* @.str.1, i64 0, i64 0))
  br label %120

73:                                               ; preds = %68
  store i32 0, i32* %3, align 4
  %74 = load i32, i32* %7, align 4
  %75 = add nsw i32 %74, 1
  %76 = call i32 (i8*, ...) @printf(i8* getelementptr inbounds ([4 x i8], [4 x i8]* @.str, i64 0, i64 0), i32 %75)
  store i32 0, i32* %5, align 4
  br label %77

77:                                               ; preds = %116, %73
  %78 = load i32, i32* %5, align 4
  %79 = load i32, i32* %2, align 4
  %80 = load i32, i32* @n, align 4
  %81 = sub nsw i32 %79, %80
  %82 = icmp slt i32 %78, %81
  br i1 %82, label %83, label %119

83:                                               ; preds = %77
  %84 = load i32, i32* %5, align 4
  %85 = sext i32 %84 to i64
  %86 = getelementptr inbounds [501 x i32], [501 x i32]* %4, i64 0, i64 %85
  %87 = load i32, i32* %86, align 4
  %88 = load i32, i32* %7, align 4
  %89 = icmp eq i32 %87, %88
  br i1 %89, label %90, label %115

90:                                               ; preds = %83
  %91 = load i32, i32* %3, align 4
  %92 = icmp ne i32 %91, 0
  br i1 %92, label %93, label %95

93:                                               ; preds = %90
  %94 = call i32 (i8*, ...) @printf(i8* getelementptr inbounds ([2 x i8], [2 x i8]* @.str.2, i64 0, i64 0))
  br label %95

95:                                               ; preds = %93, %90
  %96 = load i32, i32* %3, align 4
  %97 = add nsw i32 %96, 1
  store i32 %97, i32* %3, align 4
  store i32 0, i32* %6, align 4
  br label %98

98:                                               ; preds = %111, %95
  %99 = load i32, i32* %6, align 4
  %100 = load i32, i32* @n, align 4
  %101 = icmp slt i32 %99, %100
  br i1 %101, label %102, label %114

102:                                              ; preds = %98
  %103 = load i32, i32* %6, align 4
  %104 = load i32, i32* %5, align 4
  %105 = add nsw i32 %103, %104
  %106 = sext i32 %105 to i64
  %107 = getelementptr inbounds [501 x i8], [501 x i8]* %8, i64 0, i64 %106
  %108 = load i8, i8* %107, align 1
  %109 = sext i8 %108 to i32
  %110 = call i32 (i8*, ...) @printf(i8* getelementptr inbounds ([3 x i8], [3 x i8]* @.str.3, i64 0, i64 0), i32 %109)
  br label %111

111:                                              ; preds = %102
  %112 = load i32, i32* %6, align 4
  %113 = add nsw i32 %112, 1
  store i32 %113, i32* %6, align 4
  br label %98

114:                                              ; preds = %98
  br label %115

115:                                              ; preds = %114, %83
  br label %116

116:                                              ; preds = %115
  %117 = load i32, i32* %5, align 4
  %118 = add nsw i32 %117, 1
  store i32 %118, i32* %5, align 4
  br label %77

119:                                              ; preds = %77
  br label %120

120:                                              ; preds = %119, %71
  ret i32 0
}

; Function Attrs: argmemonly nounwind willreturn
declare void @llvm.memset.p0i8.i64(i8* nocapture writeonly, i8, i64, i1 immarg) #1

declare dso_local i32 @__isoc99_scanf(i8*, ...) #2

declare dso_local i32 @gets(...) #2

; Function Attrs: nounwind readonly
declare dso_local i64 @strlen(i8*) #3

declare dso_local i32 @printf(i8*, ...) #2


!llvm.module.flags = !{!0}
!llvm.ident = !{!1}

!0 = !{i32 1, !"wchar_size", i32 4}
!1 = !{!"clang version 10.0.0-4ubuntu1 "}
